#include <math.h>
#include <stdio.h>
#include <stdlib.h>
#include <string.h>

void f(double num[100],int n,double sum)
{
	int i;
	for(i=0;i<n;i++)
	{
		num[i]=(num[i]-sum)*(num[i]-sum);
	}
}
int main()
{
	int k,n,i,j;
	double num[100],sum;
	scanf("%d",&k);
	for(i=1;i<=k;i++)
	{
		scanf("%d",&n);
		sum=0;
		for(j=0;j<n;j++)
		{
			scanf("%lf",&num[j]);
			sum+=num[j];
		}
		sum=sum/n;
		f(num,n,sum);
		sum=0;
		for(j=0;j<n;j++)
			sum+=num[j];
		sum=sum/n;
		sum=sqrt(sum);
		printf("%.5lf\n",sum);
	}
	return 0;
}
