; ModuleID = '38/177.c'
source_filename = "38/177.c"
target datalayout = "e-m:e-p270:32:32-p271:32:32-p272:64:64-i64:64-f80:128-n8:16:32:64-S128"
target triple = "x86_64-pc-linux-gnu"

@.str = private unnamed_addr constant [3 x i8] c"%d\00", align 1
@.str.1 = private unnamed_addr constant [4 x i8] c"%lf\00", align 1
@.str.2 = private unnamed_addr constant [7 x i8] c"%.5lf\0A\00", align 1

; Function Attrs: noinline nounwind uwtable
define dso_local void @f(double* %0, i32 %1, double %2) #0 {
  %4 = alloca double*, align 8
  %5 = alloca i32, align 4
  %6 = alloca double, align 8
  %7 = alloca i32, align 4
  store double* %0, double** %4, align 8
  store i32 %1, i32* %5, align 4
  store double %2, double* %6, align 8
  store i32 0, i32* %7, align 4
  br label %8

8:                                                ; preds = %32, %3
  %9 = load i32, i32* %7, align 4
  %10 = load i32, i32* %5, align 4
  %11 = icmp slt i32 %9, %10
  br i1 %11, label %12, label %35

12:                                               ; preds = %8
  %13 = load double*, double** %4, align 8
  %14 = load i32, i32* %7, align 4
  %15 = sext i32 %14 to i64
  %16 = getelementptr inbounds double, double* %13, i64 %15
  %17 = load double, double* %16, align 8
  %18 = load double, double* %6, align 8
  %19 = fsub double %17, %18
  %20 = load double*, double** %4, align 8
  %21 = load i32, i32* %7, align 4
  %22 = sext i32 %21 to i64
  %23 = getelementptr inbounds double, double* %20, i64 %22
  %24 = load double, double* %23, align 8
  %25 = load double, double* %6, align 8
  %26 = fsub double %24, %25
  %27 = fmul double %19, %26
  %28 = load double*, double** %4, align 8
  %29 = load i32, i32* %7, align 4
  %30 = sext i32 %29 to i64
  %31 = getelementptr inbounds double, double* %28, i64 %30
  store double %27, double* %31, align 8
  br label %32

32:                                               ; preds = %12
  %33 = load i32, i32* %7, align 4
  %34 = add nsw i32 %33, 1
  store i32 %34, i32* %7, align 4
  br label %8

35:                                               ; preds = %8
  ret void
}

; Function Attrs: noinline nounwind uwtable
define dso_local i32 @main() #0 {
  %1 = alloca i32, align 4
  %2 = alloca i32, align 4
  %3 = alloca i32, align 4
  %4 = alloca i32, align 4
  %5 = alloca i32, align 4
  %6 = alloca [100 x double], align 16
  %7 = alloca double, align 8
  store i32 0, i32* %1, align 4
  %8 = call i32 (i8*, ...) @__isoc99_scanf(i8* getelementptr inbounds ([3 x i8], [3 x i8]* @.str, i64 0, i64 0), i32* %2)
  store i32 1, i32* %4, align 4
  br label %9

9:                                                ; preds = %64, %0
  %10 = load i32, i32* %4, align 4
  %11 = load i32, i32* %2, align 4
  %12 = icmp sle i32 %10, %11
  br i1 %12, label %13, label %67

13:                                               ; preds = %9
  %14 = call i32 (i8*, ...) @__isoc99_scanf(i8* getelementptr inbounds ([3 x i8], [3 x i8]* @.str, i64 0, i64 0), i32* %3)
  store double 0.000000e+00, double* %7, align 8
  store i32 0, i32* %5, align 4
  br label %15

15:                                               ; preds = %30, %13
  %16 = load i32, i32* %5, align 4
  %17 = load i32, i32* %3, align 4
  %18 = icmp slt i32 %16, %17
  br i1 %18, label %19, label %33

19:                                               ; preds = %15
  %20 = load i32, i32* %5, align 4
  %21 = sext i32 %20 to i64
  %22 = getelementptr inbounds [100 x double], [100 x double]* %6, i64 0, i64 %21
  %23 = call i32 (i8*, ...) @__isoc99_scanf(i8* getelementptr inbounds ([4 x i8], [4 x i8]* @.str.1, i64 0, i64 0), double* %22)
  %24 = load i32, i32* %5, align 4
  %25 = sext i32 %24 to i64
  %26 = getelementptr inbounds [100 x double], [100 x double]* %6, i64 0, i64 %25
  %27 = load double, double* %26, align 8
  %28 = load double, double* %7, align 8
  %29 = fadd double %28, %27
  store double %29, double* %7, align 8
  br label %30

30:                                               ; preds = %19
  %31 = load i32, i32* %5, align 4
  %32 = add nsw i32 %31, 1
  store i32 %32, i32* %5, align 4
  br label %15

33:                                               ; preds = %15
  %34 = load double, double* %7, align 8
  %35 = load i32, i32* %3, align 4
  %36 = sitofp i32 %35 to double
  %37 = fdiv double %34, %36
  store double %37, double* %7, align 8
  %38 = getelementptr inbounds [100 x double], [100 x double]* %6, i64 0, i64 0
  %39 = load i32, i32* %3, align 4
  %40 = load double, double* %7, align 8
  call void @f(double* %38, i32 %39, double %40)
  store double 0.000000e+00, double* %7, align 8
  store i32 0, i32* %5, align 4
  br label %41

41:                                               ; preds = %52, %33
  %42 = load i32, i32* %5, align 4
  %43 = load i32, i32* %3, align 4
  %44 = icmp slt i32 %42, %43
  br i1 %44, label %45, label %55

45:                                               ; preds = %41
  %46 = load i32, i32* %5, align 4
  %47 = sext i32 %46 to i64
  %48 = getelementptr inbounds [100 x double], [100 x double]* %6, i64 0, i64 %47
  %49 = load double, double* %48, align 8
  %50 = load double, double* %7, align 8
  %51 = fadd double %50, %49
  store double %51, double* %7, align 8
  br label %52

52:                                               ; preds = %45
  %53 = load i32, i32* %5, align 4
  %54 = add nsw i32 %53, 1
  store i32 %54, i32* %5, align 4
  br label %41

55:                                               ; preds = %41
  %56 = load double, double* %7, align 8
  %57 = load i32, i32* %3, align 4
  %58 = sitofp i32 %57 to double
  %59 = fdiv double %56, %58
  store double %59, double* %7, align 8
  %60 = load double, double* %7, align 8
  %61 = call double @sqrt(double %60) #3
  store double %61, double* %7, align 8
  %62 = load double, double* %7, align 8
  %63 = call i32 (i8*, ...) @printf(i8* getelementptr inbounds ([7 x i8], [7 x i8]* @.str.2, i64 0, i64 0), double %62)
  br label %64

64:                                               ; preds = %55
  %65 = load i32, i32* %4, align 4
  %66 = add nsw i32 %65, 1
  store i32 %66, i32* %4, align 4
  br label %9

67:                                               ; preds = %9
  ret i32 0
}

declare dso_local i32 @__isoc99_scanf(i8*, ...) #1

; Function Attrs: nounwind
declare dso_local double @sqrt(double) #2

declare dso_local i32 @printf(i8*, ...) #1


!llvm.module.flags = !{!0}
!llvm.ident = !{!1}

!0 = !{i32 1, !"wchar_size", i32 4}
!1 = !{!"clang version 10.0.0-4ubuntu1 "}
